target datalayout = "e-m:e-p270:32:32-p271:32:32-p272:64:64-i64:64-i128:128-f80:128-n8:16:32:64-S128"
target triple = "x86_64-pc-linux-gnu"

%"class.sls::bv_lookahead" = type { %class.bv_util, ptr, ptr, ptr, %"struct.sls::bv_lookahead::config", %"struct.sls::bv_lookahead::stats", %"class.sls::bvect", %"class.sls::bvect", %class.ptr_vector, %class.svector.1, %class.vector.3, %class.obj_mark, double, double, %"class.sls::bvect", ptr, ptr, %class.ptr_vector, %class.vector.4, %class.obj_mark, i32, %class.tracked_uint_set, i32, i32 }
%class.bv_util = type { %class.bv_recognizers, ptr, ptr }
%class.bv_recognizers = type { i32 }
%"struct.sls::bv_lookahead::config" = type <{ i8, [7 x i8], double, i32, i32, i8, i8, i8, i8, i32, i32, i32, i32, i8, [3 x i8], i32, i32, i32, i8, [3 x i8], double, double, i8, [7 x i8], double, i8, i8, i8, [5 x i8] }>
%"struct.sls::bv_lookahead::stats" = type { i32, i32, i32, i32, i32, i32 }
%class.svector.1 = type { %class.vector.2 }
%class.vector.2 = type { ptr }
%class.vector.3 = type { ptr }
%"class.sls::bvect" = type <{ %class.svector, i32, i32, i32, [4 x i8] }>
%class.svector = type { %class.vector }
%class.vector = type { ptr }
%class.ptr_vector = type { %class.vector.0 }
%class.vector.0 = type { ptr }
%class.vector.4 = type { ptr }
%class.obj_mark = type { [8 x i8], %class.bit_vector }
%class.bit_vector = type { i32, i32, ptr }
%class.tracked_uint_set = type { %class.svector.5, %class.svector }
%class.svector.5 = type { %class.vector.6 }
%class.vector.6 = type { ptr }
%class.random_gen = type { i32 }
%class.params_ref = type { ptr }
%"class.sls::context" = type <{ ptr, ptr, %class.scoped_ptr_vector.42, %class.indexed_uint_set, %class.indexed_uint_set, %class.ref_vector, %class.svector, %class.params_ref, %class.vector.45, %class.svector.46, %class.svector.46, %class.indexed_uint_set, %class.random_gen, i8, i8, i8, i8, %class.ref_vector, %class.ref_vector, %class.ptr_vector, %"struct.sls::context::greater_depth", %"struct.sls::context::less_depth", %class.heap, %class.heap.48, %class.uint_set, %class.ref_vector, %"struct.sls::context::stats", [4 x i8], %class.ref_vector, i8, [7 x i8] }>
%class.scoped_ptr_vector.42 = type { %class.ptr_vector.43 }
%class.ptr_vector.43 = type { %class.vector.44 }
%class.vector.44 = type { ptr }
%class.vector.45 = type { ptr }
%class.svector.46 = type { %class.vector.47 }
%class.vector.47 = type { ptr }
%class.indexed_uint_set = type { i32, %class.svector, %class.svector }
%"struct.sls::context::greater_depth" = type { ptr }
%"struct.sls::context::less_depth" = type { ptr }
%class.heap = type { %"struct.sls::context::greater_depth", %class.svector.20, %class.svector.20 }
%class.svector.20 = type { %class.vector.21 }
%class.vector.21 = type { ptr }
%class.heap.48 = type { %"struct.sls::context::less_depth", %class.svector.20, %class.svector.20 }
%class.uint_set = type { %class.svector }
%"struct.sls::context::stats" = type { i32, i32, i32 }
%class.ref_vector = type { %class.ref_vector_core }
%class.ref_vector_core = type { %class.ref_manager_wrapper, %class.ptr_vector }
%class.ref_manager_wrapper = type { ptr }

; Function Attrs: mustprogress nounwind uwtable
define linkonce_odr hidden noundef i32 @_ZN10random_genclEv(ptr noundef nonnull align 4 dereferenceable(4) %0) #6 comdat align 2 {
  %2 = alloca ptr, align 8
  store ptr %0, ptr %2, align 8, !tbaa !383
  %3 = load ptr, ptr %2, align 8
  %4 = getelementptr inbounds nuw %class.random_gen, ptr %3, i32 0, i32 0
  %5 = load i32, ptr %4, align 4, !tbaa !385
  %6 = zext i32 %5 to i64
  %7 = mul nsw i64 %6, 214013
  %8 = add nsw i64 %7, 2531011
  %9 = trunc i64 %8 to i32
  %10 = getelementptr inbounds nuw %class.random_gen, ptr %3, i32 0, i32 0
  store i32 %9, ptr %10, align 4, !tbaa !385
  %11 = lshr i32 %9, 16
  %12 = and i32 %11, 32767
  ret i32 %12
}

; Function Attrs: mustprogress nounwind uwtable
define linkonce_odr hidden noundef nonnull align 8 dereferenceable(8) ptr @_ZNK6vectorIP4exprLb0EjEixEj(ptr noundef nonnull align 8 dereferenceable(8) %0, i32 noundef %1) #6 comdat align 2 {
  %3 = alloca ptr, align 8
  %4 = alloca i32, align 4
  store ptr %0, ptr %3, align 8, !tbaa !128
  store i32 %1, ptr %4, align 4, !tbaa !185
  %5 = load ptr, ptr %3, align 8
  %6 = getelementptr inbounds nuw %class.vector.0, ptr %5, i32 0, i32 0
  %7 = load ptr, ptr %6, align 8, !tbaa !213
  %8 = load i32, ptr %4, align 4, !tbaa !185
  %9 = zext i32 %8 to i64
  %10 = getelementptr inbounds nuw ptr, ptr %7, i64 %9
  ret ptr %10
}

; Function Attrs: mustprogress nounwind uwtable
define linkonce_odr hidden noundef i32 @_ZN3sls7context4randEv(ptr noundef nonnull align 8 dereferenceable(321) %0) #6 comdat align 2 {
  %2 = alloca ptr, align 8
  store ptr %0, ptr %2, align 8, !tbaa !65
  %3 = load ptr, ptr %2, align 8
  %4 = getelementptr inbounds nuw %"class.sls::context", ptr %3, i32 0, i32 12
  %5 = call noundef i32 @_ZN10random_genclEv(ptr noundef nonnull align 4 dereferenceable(4) %4)
  ret i32 %5
}

; Function Attrs: mustprogress nounwind uwtable
define linkonce_odr hidden noundef i32 @_ZNK6vectorIP4exprLb0EjE4sizeEv(ptr noundef nonnull align 8 dereferenceable(8) %0) #6 comdat align 2 {
  %2 = alloca i32, align 4
  %3 = alloca ptr, align 8
  store ptr %0, ptr %3, align 8, !tbaa !128
  %4 = load ptr, ptr %3, align 8
  %5 = getelementptr inbounds nuw %class.vector.0, ptr %4, i32 0, i32 0
  %6 = load ptr, ptr %5, align 8, !tbaa !213
  %7 = icmp eq ptr %6, null
  br i1 %7, label %8, label %9

8:                                                ; preds = %1
  store i32 0, ptr %2, align 4
  br label %14

9:                                                ; preds = %1
  %10 = getelementptr inbounds nuw %class.vector.0, ptr %4, i32 0, i32 0
  %11 = load ptr, ptr %10, align 8, !tbaa !213
  %12 = getelementptr inbounds i32, ptr %11, i64 -1
  %13 = load i32, ptr %12, align 4, !tbaa !185
  store i32 %13, ptr %2, align 4
  br label %14

14:                                               ; preds = %9, %8
  %15 = load i32, ptr %2, align 4
  ret i32 %15
}

; Function Attrs: mustprogress uwtable
define hidden noundef zeroext i1 @_ZN3sls12bv_lookahead17apply_guided_moveERK10ptr_vectorI4exprE(ptr noundef nonnull align 8 dereferenceable(400) %0, ptr noundef nonnull align 8 dereferenceable(8) %1) #4 align 2 {
  %3 = alloca ptr, align 8
  %4 = alloca ptr, align 8
  %5 = alloca i32, align 4
  %6 = alloca i32, align 4
  %7 = alloca i32, align 4
  store ptr %0, ptr %3, align 8, !tbaa !3
  store ptr %1, ptr %4, align 8, !tbaa !112
  %8 = load ptr, ptr %3, align 8
  %9 = getelementptr inbounds nuw %"class.sls::bv_lookahead", ptr %8, i32 0, i32 15
  store ptr null, ptr %9, align 8, !tbaa !69
  %10 = getelementptr inbounds nuw %"class.sls::bv_lookahead", ptr %8, i32 0, i32 13
  %11 = load double, ptr %10, align 8, !tbaa !68
  %12 = getelementptr inbounds nuw %"class.sls::bv_lookahead", ptr %8, i32 0, i32 12
  store double %11, ptr %12, align 8, !tbaa !67
  call void @llvm.lifetime.start.p0(i64 4, ptr %5) #3
  %13 = load ptr, ptr %4, align 8, !tbaa !112
  %14 = call noundef i32 @_ZNK6vectorIP4exprLb0EjE4sizeEv(ptr noundef nonnull align 8 dereferenceable(8) %13)
  store i32 %14, ptr %5, align 4, !tbaa !185
  call void @llvm.lifetime.start.p0(i64 4, ptr %6) #3
  %15 = getelementptr inbounds nuw %"class.sls::bv_lookahead", ptr %8, i32 0, i32 2
  %16 = load ptr, ptr %15, align 8, !tbaa !136
  %17 = call noundef i32 @_ZN3sls7context4randEv(ptr noundef nonnull align 8 dereferenceable(321) %16)
  store i32 %17, ptr %6, align 4, !tbaa !185
  call void @llvm.lifetime.start.p0(i64 4, ptr %7) #3
  store i32 0, ptr %7, align 4, !tbaa !185
  br label %18

18:                                               ; preds = %32, %2
  %19 = load i32, ptr %7, align 4, !tbaa !185
  %20 = load i32, ptr %5, align 4, !tbaa !185
  %21 = icmp ult i32 %19, %20
  br i1 %21, label %23, label %22

22:                                               ; preds = %18
  call void @llvm.lifetime.end.p0(i64 4, ptr %7) #3
  br label %35

23:                                               ; preds = %18
  %24 = load ptr, ptr %4, align 8, !tbaa !112
  %25 = load i32, ptr %6, align 4, !tbaa !185
  %26 = load i32, ptr %7, align 4, !tbaa !185
  %27 = add i32 %25, %26
  %28 = load i32, ptr %5, align 4, !tbaa !185
  %29 = urem i32 %27, %28
  %30 = call noundef nonnull align 8 dereferenceable(8) ptr @_ZNK6vectorIP4exprLb0EjEixEj(ptr noundef nonnull align 8 dereferenceable(8) %24, i32 noundef %29)
  %31 = load ptr, ptr %30, align 8, !tbaa !173
  call void @_ZN3sls12bv_lookahead11add_updatesEP4expr(ptr noundef nonnull align 8 dereferenceable(400) %8, ptr noundef %31)
  br label %32

32:                                               ; preds = %23
  %33 = load i32, ptr %7, align 4, !tbaa !185
  %34 = add i32 %33, 1
  store i32 %34, ptr %7, align 4, !tbaa !185
  br label %18, !llvm.loop !218

35:                                               ; preds = %22
  %36 = getelementptr inbounds nuw %"class.sls::bv_lookahead", ptr %8, i32 0, i32 16
  %37 = load ptr, ptr %36, align 8, !tbaa !70
  %38 = getelementptr inbounds nuw %"class.sls::bv_lookahead", ptr %8, i32 0, i32 15
  %39 = load ptr, ptr %38, align 8, !tbaa !69
  %40 = getelementptr inbounds nuw %"class.sls::bv_lookahead", ptr %8, i32 0, i32 14
  %41 = call noundef zeroext i1 @_ZN3sls12bv_lookahead12apply_updateEP4exprS2_RKNS_5bvectENS0_9move_typeE(ptr noundef nonnull align 8 dereferenceable(400) %8, ptr noundef %37, ptr noundef %39, ptr noundef nonnull align 8 dereferenceable(20) %40, i32 noundef 1)
  call void @llvm.lifetime.end.p0(i64 4, ptr %6) #3
  call void @llvm.lifetime.end.p0(i64 4, ptr %5) #3
  ret i1 %41
}