; Function Attrs: mustprogress uwtable
define hidden noundef zeroext i1 @_ZN3sls12bv_lookahead17apply_guided_moveERK10ptr_vectorI4exprE(ptr noundef nonnull align 8 dereferenceable(400) initializes((272, 280), (312, 320)) %0, ptr noundef nonnull readonly align 8 captures(none) dereferenceable(8) %1) local_unnamed_addr #3 align 2 {
  %3 = getelementptr inbounds nuw i8, ptr %0, i64 312
  store ptr null, ptr %3, align 8, !tbaa !141
  %4 = getelementptr inbounds nuw i8, ptr %0, i64 280
  %5 = load double, ptr %4, align 8, !tbaa !142
  %6 = getelementptr inbounds nuw i8, ptr %0, i64 272
  store double %5, ptr %6, align 8, !tbaa !143
  %7 = load ptr, ptr %1, align 8, !tbaa !132
  %8 = icmp eq ptr %7, null
  br i1 %8, label %_ZNK6vectorIP4exprLb0EjE4sizeEv.exit, label %9

9:                                                ; preds = %2
  %10 = getelementptr inbounds i8, ptr %7, i64 -4
  %11 = load i32, ptr %10, align 4, !tbaa !133
  br label %_ZNK6vectorIP4exprLb0EjE4sizeEv.exit

_ZNK6vectorIP4exprLb0EjE4sizeEv.exit:             ; preds = %2, %9
  %.0.i = phi i32 [ %11, %9 ], [ 0, %2 ]
  %12 = getelementptr inbounds nuw i8, ptr %0, i64 32
  %13 = load ptr, ptr %12, align 8, !tbaa !92
  %14 = getelementptr inbounds nuw i8, ptr %13, i64 152
  %15 = load i32, ptr %14, align 4, !tbaa !139
  %16 = mul i32 %15, 214013
  %17 = add i32 %16, 2531011
  store i32 %17, ptr %14, align 4, !tbaa !139
  %18 = lshr i32 %17, 16
  %19 = and i32 %18, 32767
  %.not = icmp eq i32 %.0.i, 0
  br i1 %.not, label %._crit_edge, label %.lr.ph

._crit_edge.loopexit:                             ; preds = %.lr.ph
  %.pre = load ptr, ptr %3, align 8, !tbaa !141
  br label %._crit_edge

._crit_edge:                                      ; preds = %._crit_edge.loopexit, %_ZNK6vectorIP4exprLb0EjE4sizeEv.exit
  %20 = phi ptr [ %.pre, %._crit_edge.loopexit ], [ null, %_ZNK6vectorIP4exprLb0EjE4sizeEv.exit ]
  %21 = getelementptr inbounds nuw i8, ptr %0, i64 320
  %22 = load ptr, ptr %21, align 8, !tbaa !144
  %23 = getelementptr inbounds nuw i8, ptr %0, i64 288
  %24 = tail call noundef zeroext i1 @_ZN3sls12bv_lookahead12apply_updateEP4exprS2_RKNS_5bvectENS0_9move_typeE(ptr noundef nonnull align 8 dereferenceable(400) %0, ptr noundef %22, ptr noundef %20, ptr noundef nonnull align 8 dereferenceable(20) %23, i32 noundef 1)
  ret i1 %24

.lr.ph:                                           ; preds = %_ZNK6vectorIP4exprLb0EjE4sizeEv.exit, %.lr.ph
  %.09 = phi i32 [ %31, %.lr.ph ], [ 0, %_ZNK6vectorIP4exprLb0EjE4sizeEv.exit ]
  %25 = add i32 %.09, %19
  %26 = urem i32 %25, %.0.i
  %27 = load ptr, ptr %1, align 8, !tbaa !132
  %28 = zext i32 %26 to i64
  %29 = getelementptr inbounds nuw ptr, ptr %27, i64 %28
  %30 = load ptr, ptr %29, align 8, !tbaa !134
  tail call void @_ZN3sls12bv_lookahead11add_updatesEP4expr(ptr noundef nonnull align 8 dereferenceable(400) %0, ptr noundef %30)
  %31 = add nuw i32 %.09, 1
  %exitcond.not = icmp eq i32 %31, %.0.i
  br i1 %exitcond.not, label %._crit_edge.loopexit, label %.lr.ph, !llvm.loop !145
}